; Function Attrs: mustprogress nounwind uwtable
define hidden noundef zeroext i1 @_ZN8PhaseCFG21do_global_code_motionEv(ptr noundef nonnull align 8 dereferenceable(160) %0) local_unnamed_addr #0 align 2 {
  tail call void @_ZN8PhaseCFG20build_dominator_treeEv(ptr noundef nonnull align 8 dereferenceable(160) %0) #14
  %2 = getelementptr inbounds i8, ptr %0, i64 8
  %3 = load ptr, ptr %2, align 8
  %4 = getelementptr inbounds i8, ptr %3, i64 352
  %5 = load ptr, ptr %4, align 8
  %6 = getelementptr inbounds i8, ptr %5, i64 88
  %7 = load ptr, ptr %6, align 8
  %8 = icmp ne ptr %7, null
  %9 = getelementptr inbounds i8, ptr %3, i64 376
  %10 = load ptr, ptr %9, align 8
  %11 = icmp ne ptr %10, null
  %12 = select i1 %8, i1 true, i1 %11
  br i1 %12, label %23, label %13

13:                                               ; preds = %1
  tail call void @_ZN8PhaseCFG24estimate_block_frequencyEv(ptr noundef nonnull align 8 dereferenceable(160) %0)
  tail call void @_ZN8PhaseCFG18global_code_motionEv(ptr noundef nonnull align 8 dereferenceable(160) %0)
  %14 = load ptr, ptr %2, align 8
  %15 = getelementptr inbounds i8, ptr %14, i64 352
  %16 = load ptr, ptr %15, align 8
  %17 = getelementptr inbounds i8, ptr %16, i64 88
  %18 = load ptr, ptr %17, align 8
  %19 = icmp eq ptr %18, null
  %20 = getelementptr inbounds i8, ptr %14, i64 376
  %21 = load ptr, ptr %20, align 8
  %22 = icmp eq ptr %21, null
  %.not3 = select i1 %19, i1 %22, i1 false
  br label %23

23:                                               ; preds = %13, %1
  %.0 = phi i1 [ false, %1 ], [ %.not3, %13 ]
  ret i1 %.0
}